	.file	"rvrs_polish_calc.c"
	.intel_syntax noprefix
	.text
.Ltext0:
	.globl	stack
	.data
	.align 32
	.type	stack, @object
	.size	stack, 100
stack:
	.byte	48
	.zero	99
	.section	.rodata
.LC0:
	.string	"stack %p s %p \n"
	.text
	.globl	calc_tester
	.type	calc_tester, @function
calc_tester:
.LFB2:
	.file 1 "rvrs_polish_calc.c"
	.loc 1 15 0
	.cfi_startproc
	push	rbp
.LCFI0:
	.cfi_def_cfa_offset 16
	.cfi_offset 6, -16
	mov	rbp, rsp
.LCFI1:
	.cfi_def_cfa_register 6
	sub	rsp, 32
	mov	QWORD PTR [rbp-24], rdi
	.loc 1 16 0
	mov	QWORD PTR [rbp-8], OFFSET FLAT:stack
	.loc 1 17 0
	mov	BYTE PTR stack[rip], 99
	.loc 1 18 0
	lea	rax, [rbp-24]
	mov	rdx, rax
	mov	esi, OFFSET FLAT:stack
	mov	edi, OFFSET FLAT:.LC0
	mov	eax, 0
	call	printf
	.loc 1 19 0
	mov	eax, DWORD PTR .LC1[rip]
	.loc 1 20 0
	mov	DWORD PTR [rbp-28], eax
	movss	xmm0, DWORD PTR [rbp-28]
	leave
.LCFI2:
	.cfi_def_cfa 7, 8
	ret
	.cfi_endproc
.LFE2:
	.size	calc_tester, .-calc_tester
	.section	.rodata
.LC2:
	.string	"TEST_CASES"
.LC3:
	.string	"%s = 1; result %0.1f\n"
.LC4:
	.string	"%s = 2.5; result %0.1f\n"
.LC5:
	.string	"%s = 2; result %0.1f\n"
.LC6:
	.string	"%s = 14; result %0.1f\n"
	.text
	.globl	main
	.type	main, @function
main:
.LFB3:
	.loc 1 23 0
	.cfi_startproc
	push	rbp
.LCFI3:
	.cfi_def_cfa_offset 16
	.cfi_offset 6, -16
	mov	rbp, rsp
.LCFI4:
	.cfi_def_cfa_register 6
	sub	rsp, 160
	.loc 1 23 0
	mov	rax, QWORD PTR fs:40
	mov	QWORD PTR [rbp-8], rax
	xor	eax, eax
.LBB2:
	.loc 1 26 0
	mov	DWORD PTR [rbp-144], 891302957
	mov	WORD PTR [rbp-140], 11040
	mov	BYTE PTR [rbp-138], 0
	.loc 1 27 0
	mov	DWORD PTR [rbp-160], 540155957
	mov	WORD PTR [rbp-156], 47
	.loc 1 28 0
	movabs	rdx, 13264736685793333
	mov	QWORD PTR [rbp-128], rdx
	.loc 1 29 0
	movabs	rax, 2317981832872796213
	mov	QWORD PTR [rbp-112], rax
	movabs	rdx, 2318544787120726068
	mov	QWORD PTR [rbp-104], rdx
	mov	WORD PTR [rbp-96], 43
	.loc 1 30 0
	movabs	rax, 2317700370781052980
	mov	QWORD PTR [rbp-80], rax
	movabs	rdx, 2319952162004738091
	mov	QWORD PTR [rbp-72], rdx
	mov	DWORD PTR [rbp-64], 539697194
	mov	WORD PTR [rbp-60], 47
	.loc 1 31 0
	movabs	rax, 3035482362321318449
	mov	QWORD PTR [rbp-48], rax
	movabs	rdx, 3611936517403981344
	mov	QWORD PTR [rbp-40], rdx
	movabs	rax, 3832053325002451744
	mov	QWORD PTR [rbp-32], rax
	mov	WORD PTR [rbp-24], 32
	.loc 1 32 0
	mov	edi, OFFSET FLAT:.LC2
	call	puts
	.loc 1 33 0
	lea	rax, [rbp-144]
	mov	rdi, rax
	call	calc_tester
	unpcklps	xmm0, xmm0
	cvtps2pd	xmm0, xmm0
	lea	rax, [rbp-144]
	mov	rsi, rax
	mov	edi, OFFSET FLAT:.LC3
	mov	eax, 1
	call	printf
	.loc 1 34 0
	lea	rax, [rbp-160]
	mov	rdi, rax
	call	calc_tester
	unpcklps	xmm0, xmm0
	cvtps2pd	xmm0, xmm0
	lea	rax, [rbp-160]
	mov	rsi, rax
	mov	edi, OFFSET FLAT:.LC4
	mov	eax, 1
	call	printf
	.loc 1 35 0
	lea	rax, [rbp-128]
	mov	rdi, rax
	call	calc_tester
	unpcklps	xmm0, xmm0
	cvtps2pd	xmm0, xmm0
	lea	rax, [rbp-128]
	mov	rsi, rax
	mov	edi, OFFSET FLAT:.LC5
	mov	eax, 1
	call	printf
	.loc 1 36 0
	lea	rax, [rbp-112]
	mov	rdi, rax
	call	calc_tester
	unpcklps	xmm0, xmm0
	cvtps2pd	xmm0, xmm0
	lea	rax, [rbp-112]
	mov	rsi, rax
	mov	edi, OFFSET FLAT:.LC6
	mov	eax, 1
	call	printf
	.loc 1 37 0
	lea	rax, [rbp-80]
	mov	rdi, rax
	call	calc_tester
	unpcklps	xmm0, xmm0
	cvtps2pd	xmm0, xmm0
	lea	rax, [rbp-80]
	mov	rsi, rax
	mov	edi, OFFSET FLAT:.LC5
	mov	eax, 1
	call	printf
	.loc 1 38 0
	lea	rax, [rbp-48]
	mov	rdi, rax
	call	calc_tester
	unpcklps	xmm0, xmm0
	cvtps2pd	xmm0, xmm0
	lea	rax, [rbp-48]
	mov	rsi, rax
	mov	edi, OFFSET FLAT:.LC5
	mov	eax, 1
	call	printf
.LBE2:
	.loc 1 41 0
	mov	eax, 0
	.loc 1 42 0
	mov	rdx, QWORD PTR [rbp-8]
	xor	rdx, QWORD PTR fs:40
	je	.L5
	call	__stack_chk_fail
.L5:
	leave
.LCFI5:
	.cfi_def_cfa 7, 8
	ret
	.cfi_endproc
.LFE3:
	.size	main, .-main
	.section	.rodata
	.align 4
.LC1:
	.long	3212836864
	.text
.Letext0:
	.section	.note.GNU-stack,"",@progbits
