	.file	"strindex_smarter.c"
	.intel_syntax noprefix
	.text
.Ltext0:
	.p2align 4,,15
	.globl	strindex
	.type	strindex, @function
strindex:
.LFB24:
	.file 1 "strindex_smarter.c"
	.loc 1 5 0
	.cfi_startproc
.LVL0:
	.loc 1 10 0
	movzx	r8d, BYTE PTR [rdi]
	.loc 1 30 0
	mov	eax, -1
	.loc 1 10 0
	test	r8b, r8b
	je	.L2
	movzx	r10d, BYTE PTR [rsi]
	xor	r9d, r9d
.LVL1:
	.p2align 4,,10
	.p2align 3
.L3:
	.loc 1 12 0 discriminator 1
	test	r10b, r10b
	mov	eax, r9d
	je	.L4
	.loc 1 12 0 is_stmt 0
	cmp	r10b, r8b
	je	.L18
	.loc 1 12 0 discriminator 1
	mov	rdx, rsi
	jmp	.L5
.LVL2:
	.p2align 4,,10
	.p2align 3
.L20:
	.loc 1 12 0 discriminator 2
	cmp	r8b, cl
	je	.L19
.L5:
	.loc 1 12 0 discriminator 1
	add	rdx, 1
.LVL3:
	movzx	ecx, BYTE PTR [rdx]
	test	cl, cl
	jne	.L20
.LVL4:
.L4:
	add	r9, 1
	.loc 1 10 0 is_stmt 1
	movzx	r8d, BYTE PTR [rdi+r9]
	test	r8b, r8b
	jne	.L3
	.loc 1 30 0
	mov	eax, -1
.L2:
	.loc 1 32 0
	rep
	ret
.LVL5:
	.p2align 4,,10
	.p2align 3
.L19:
	rep
	ret
.LVL6:
.L18:
	rep
	ret
	.cfi_endproc
.LFE24:
	.size	strindex, .-strindex
	.section	.rodata.str1.1,"aMS",@progbits,1
.LC1:
	.string	"strindex(%s,%s) = %d\n"
.LC2:
	.string	"s1:%s, s2:%s,s3:%s,s4:%s\n"
	.section	.rodata.str1.8,"aMS",@progbits,1
	.align 8
.LC0:
	.string	"vadkgjdglhfdagihoighaoighadsoifhoighoighoidsaghoidsaghoidsaghoidsahgoidsahgoidsahgoidsahgihgoidsahgoidsahgoidsahgoisahgoireaaoivdanibvnignhaoidjgiadgoidsavinvidnhiaohgaoievdnvoidanvionroihieojfoiddsanjv"
	.section	.text.startup,"ax",@progbits
	.p2align 4,,15
	.globl	main
	.type	main, @function
main:
.LFB25:
	.loc 1 34 0
	.cfi_startproc
	push	r14
.LCFI0:
	.cfi_def_cfa_offset 16
	.cfi_offset 14, -16
	.loc 1 39 0
	mov	esi, OFFSET FLAT:.LC0
	mov	ecx, 25
	.loc 1 38 0
	movabs	rdx, 8536140394893047414
	.loc 1 34 0
	push	r13
.LCFI1:
	.cfi_def_cfa_offset 24
	.cfi_offset 13, -24
	push	r12
.LCFI2:
	.cfi_def_cfa_offset 32
	.cfi_offset 12, -32
	push	rbp
.LCFI3:
	.cfi_def_cfa_offset 40
	.cfi_offset 6, -40
	push	rbx
.LCFI4:
	.cfi_def_cfa_offset 48
	.cfi_offset 3, -48
	sub	rsp, 304
.LCFI5:
	.cfi_def_cfa_offset 352
	.loc 1 39 0
	lea	rbp, [rsp+80]
	.loc 1 35 0
	mov	DWORD PTR [rsp+32], 1684234849
	mov	BYTE PTR [rsp+36], 0
	.loc 1 34 0
	mov	rax, QWORD PTR fs:40
	mov	QWORD PTR [rsp+296], rax
	xor	eax, eax
	.loc 1 39 0
	mov	rdi, rbp
	.loc 1 36 0
	mov	WORD PTR [rsp], 25442
	mov	BYTE PTR [rsp+2], 0
	.loc 1 39 0
	rep movsq
	.loc 1 37 0
	mov	WORD PTR [rsp+16], 25958
	mov	BYTE PTR [rsp+18], 0
	.loc 1 38 0
	mov	QWORD PTR [rsp+48], rdx
	mov	QWORD PTR [rsp+56], rdx
.LBB20:
.LBB21:
	.loc 1 10 0
	movzx	ecx, BYTE PTR [rsp+32]
.LBE21:
.LBE20:
	.loc 1 38 0
	mov	QWORD PTR [rsp+64], rdx
	mov	DWORD PTR [rsp+72], 1650554486
	mov	WORD PTR [rsp+76], 24929
	mov	BYTE PTR [rsp+78], 0
	.loc 1 39 0
	movzx	eax, WORD PTR [rsi]
.LBB25:
.LBB22:
	.loc 1 10 0
	test	cl, cl
.LBE22:
.LBE25:
	.loc 1 39 0
	mov	WORD PTR [rdi], ax
	movzx	eax, BYTE PTR .LC0[rip+202]
	mov	BYTE PTR [rdi+2], al
.LVL7:
.LBB26:
.LBB23:
	.loc 1 10 0
	je	.L39
	movzx	edi, BYTE PTR [rsp]
	lea	rbx, [rsp+32]
.LVL8:
	xor	esi, esi
.LVL9:
	.p2align 4,,10
	.p2align 3
.L23:
	.loc 1 12 0
	test	dil, dil
	mov	r8d, esi
	je	.L24
	cmp	dil, cl
	je	.L22
	.loc 1 41 0
	mov	rax, rsp
	jmp	.L25
.LVL10:
	.p2align 4,,10
	.p2align 3
.L81:
	.loc 1 12 0
	cmp	dl, cl
	je	.L22
.L25:
	add	rax, 1
.LVL11:
	movzx	edx, BYTE PTR [rax]
	test	dl, dl
	jne	.L81
.LVL12:
.L24:
	add	rsi, 1
	.loc 1 10 0
	movzx	ecx, BYTE PTR [rbx+rsi]
	test	cl, cl
	jne	.L23
	.loc 1 30 0
	or	r8d, -1
.LVL13:
	.p2align 4,,10
	.p2align 3
.L22:
.LBE23:
.LBE26:
.LBB27:
.LBB28:
	.file 2 "/usr/include/x86_64-linux-gnu/bits/stdio2.h"
	.loc 2 104 0
	mov	rcx, rsp
	xor	eax, eax
	mov	rdx, rbx
	mov	esi, OFFSET FLAT:.LC1
	mov	edi, 1
	call	__printf_chk
.LVL14:
.LBE28:
.LBE27:
.LBB29:
.LBB30:
	.loc 1 10 0
	movzx	ecx, BYTE PTR [rsp+32]
	test	cl, cl
	je	.L42
	movzx	edi, BYTE PTR [rsp+16]
	lea	r13, [rsp+16]
.LVL15:
	xor	esi, esi
.LVL16:
	.p2align 4,,10
	.p2align 3
.L27:
	.loc 1 12 0
	test	dil, dil
	mov	r8d, esi
	je	.L28
	cmp	dil, cl
	je	.L26
	.loc 1 42 0
	mov	rax, r13
	jmp	.L29
.LVL17:
	.p2align 4,,10
	.p2align 3
.L82:
	.loc 1 12 0
	cmp	dl, cl
	je	.L26
.L29:
	add	rax, 1
.LVL18:
	movzx	edx, BYTE PTR [rax]
	test	dl, dl
	jne	.L82
.LVL19:
.L28:
	add	rsi, 1
	.loc 1 10 0
	movzx	ecx, BYTE PTR [rbx+rsi]
	test	cl, cl
	jne	.L27
	.loc 1 30 0
	or	r8d, -1
.LVL20:
	.p2align 4,,10
	.p2align 3
.L26:
.LBE30:
.LBE29:
.LBB32:
.LBB33:
	.loc 2 104 0
	mov	rcx, r13
	xor	eax, eax
	mov	rdx, rbx
	mov	esi, OFFSET FLAT:.LC1
	mov	edi, 1
	call	__printf_chk
.LVL21:
.LBE33:
.LBE32:
.LBB34:
.LBB35:
	.loc 1 10 0
	movzx	ecx, BYTE PTR [rsp+32]
	test	cl, cl
	je	.L45
	movzx	edi, BYTE PTR [rsp+48]
	lea	r14, [rsp+48]
.LVL22:
	xor	esi, esi
.LVL23:
	.p2align 4,,10
	.p2align 3
.L31:
	.loc 1 12 0
	test	dil, dil
	mov	r8d, esi
	je	.L32
	cmp	dil, cl
	je	.L30
	.loc 1 43 0
	mov	rax, r14
	jmp	.L33
.LVL24:
	.p2align 4,,10
	.p2align 3
.L83:
	.loc 1 12 0
	cmp	dl, cl
	je	.L30
.L33:
	add	rax, 1
.LVL25:
	movzx	edx, BYTE PTR [rax]
	test	dl, dl
	jne	.L83
.LVL26:
.L32:
	add	rsi, 1
	.loc 1 10 0
	movzx	ecx, BYTE PTR [rbx+rsi]
	test	cl, cl
	jne	.L31
	.loc 1 30 0
	or	r8d, -1
.LVL27:
	.p2align 4,,10
	.p2align 3
.L30:
.LBE35:
.LBE34:
.LBB37:
.LBB38:
	.loc 2 104 0
	mov	rdx, rbx
	xor	eax, eax
	mov	rcx, r14
	mov	esi, OFFSET FLAT:.LC1
	mov	edi, 1
	call	__printf_chk
.LVL28:
.LBE38:
.LBE37:
.LBB39:
.LBB40:
	.loc 1 10 0
	movzx	edx, BYTE PTR [rsp+32]
	.loc 1 30 0
	mov	r8d, -1
	.loc 1 10 0
	test	dl, dl
	je	.L34
	movzx	edi, BYTE PTR [rsp+80]
	xor	ecx, ecx
.LVL29:
	.p2align 4,,10
	.p2align 3
.L35:
	.loc 1 12 0
	test	dil, dil
	mov	r8d, ecx
	je	.L36
	cmp	dil, dl
	je	.L34
	.loc 1 44 0
	mov	rax, rbp
	jmp	.L37
.LVL30:
	.p2align 4,,10
	.p2align 3
.L84:
	.loc 1 12 0
	cmp	sil, dl
	je	.L34
.L37:
	add	rax, 1
.LVL31:
	movzx	esi, BYTE PTR [rax]
	test	sil, sil
	jne	.L84
.LVL32:
.L36:
	add	rcx, 1
	.loc 1 10 0
	movzx	edx, BYTE PTR [rbx+rcx]
	test	dl, dl
	jne	.L35
	.loc 1 30 0
	or	r8d, -1
.LVL33:
	.p2align 4,,10
	.p2align 3
.L34:
.LBE40:
.LBE39:
.LBB41:
.LBB42:
	.loc 2 104 0
	mov	rcx, rbp
	mov	rdx, rbx
	mov	esi, OFFSET FLAT:.LC1
	mov	edi, 1
	xor	eax, eax
	call	__printf_chk
.LVL34:
.LBE42:
.LBE41:
.LBB43:
.LBB44:
	mov	rdx, rbx
	xor	eax, eax
	mov	r9, r14
	mov	r8, r13
	mov	rcx, rsp
	mov	esi, OFFSET FLAT:.LC2
	mov	edi, 1
	call	__printf_chk
.LVL35:
.LBE44:
.LBE43:
	.loc 1 50 0
	xor	eax, eax
	mov	rdx, QWORD PTR [rsp+296]
	xor	rdx, QWORD PTR fs:40
	jne	.L85
	add	rsp, 304
.LCFI6:
	.cfi_remember_state
	.cfi_def_cfa_offset 48
.LVL36:
	pop	rbx
.LCFI7:
	.cfi_def_cfa_offset 40
.LVL37:
	pop	rbp
.LCFI8:
	.cfi_def_cfa_offset 32
	pop	r12
.LCFI9:
	.cfi_def_cfa_offset 24
	pop	r13
.LCFI10:
	.cfi_def_cfa_offset 16
	pop	r14
.LCFI11:
	.cfi_def_cfa_offset 8
	ret
.LVL38:
.L39:
.LCFI12:
	.cfi_restore_state
.LBB45:
.LBB24:
	.loc 1 30 0
	or	r8d, -1
	lea	rbx, [rsp+32]
.LVL39:
	jmp	.L22
.LVL40:
.L42:
.LBE24:
.LBE45:
.LBB46:
.LBB31:
	or	r8d, -1
	lea	r13, [rsp+16]
.LVL41:
	jmp	.L26
.LVL42:
.L45:
.LBE31:
.LBE46:
.LBB47:
.LBB36:
	or	r8d, -1
	lea	r14, [rsp+48]
.LVL43:
	jmp	.L30
.LVL44:
.L85:
.LBE36:
.LBE47:
	.loc 1 50 0
	call	__stack_chk_fail
.LVL45:
	.cfi_endproc
.LFE25:
	.size	main, .-main
	.text
.Letext0:
	.file 3 "/usr/lib/gcc/x86_64-linux-gnu/4.7/include/stddef.h"
	.file 4 "/usr/include/x86_64-linux-gnu/bits/types.h"
	.file 5 "/usr/include/libio.h"
	.file 6 "/usr/include/stdio.h"
	.section	.note.GNU-stack,"",@progbits
